target datalayout = "e-m:e-p270:32:32-p271:32:32-p272:64:64-i64:64-i128:128-f80:128-n8:16:32:64-S128"
target triple = "x86_64-pc-linux-gnu"

%"class.icu_77::UObject" = type { ptr }
%"class.icu_77::UnicodeString" = type { %"class.icu_77::Replaceable", %"union.icu_77::UnicodeString::StackBufferOrFields" }
%"class.icu_77::Replaceable" = type { %"class.icu_77::UObject" }
%"union.icu_77::UnicodeString::StackBufferOrFields" = type { %struct.anon.0, [32 x i8] }
%struct.anon.0 = type { i16, i32, i32, ptr }
%"class.icu_77::ICUService" = type { %"class.icu_77::ICUNotifier", %"class.icu_77::UnicodeString", i32, ptr, ptr, ptr, ptr }
%"class.icu_77::ICUNotifier" = type { ptr, ptr }

; Function Attrs: mustprogress uwtable
define void @_ZN6icu_7710ICUServiceC2ERKNS_13UnicodeStringE(ptr noundef nonnull align 8 dereferenceable(120) %0, ptr noundef nonnull align 8 dereferenceable(64) %1) unnamed_addr #0 align 2 personality ptr @__gxx_personality_v0 {
  %3 = alloca ptr, align 8
  %4 = alloca ptr, align 8
  %5 = alloca ptr, align 8
  %6 = alloca i32, align 4
  store ptr %0, ptr %3, align 8, !tbaa !30
  store ptr %1, ptr %4, align 8, !tbaa !8
  %7 = load ptr, ptr %3, align 8
  call void @_ZN6icu_7711ICUNotifierC2Ev(ptr noundef nonnull align 8 dereferenceable(16) %7)
  store ptr getelementptr inbounds inrange(-16, 152) ({ [21 x ptr] }, ptr @_ZTVN6icu_7710ICUServiceE, i32 0, i32 0, i32 2), ptr %7, align 8, !tbaa !10
  %8 = getelementptr inbounds nuw %"class.icu_77::ICUService", ptr %7, i32 0, i32 1
  %9 = load ptr, ptr %4, align 8, !tbaa !8
  invoke void @_ZN6icu_7713UnicodeStringC1ERKS0_(ptr noundef nonnull align 8 dereferenceable(64) %8, ptr noundef nonnull align 8 dereferenceable(64) %9)
          to label %10 unwind label %16

10:                                               ; preds = %2
  %11 = getelementptr inbounds nuw %"class.icu_77::ICUService", ptr %7, i32 0, i32 2
  store i32 0, ptr %11, align 8, !tbaa !49
  %12 = getelementptr inbounds nuw %"class.icu_77::ICUService", ptr %7, i32 0, i32 3
  store ptr null, ptr %12, align 8, !tbaa !54
  %13 = getelementptr inbounds nuw %"class.icu_77::ICUService", ptr %7, i32 0, i32 4
  store ptr null, ptr %13, align 8, !tbaa !55
  %14 = getelementptr inbounds nuw %"class.icu_77::ICUService", ptr %7, i32 0, i32 5
  store ptr null, ptr %14, align 8, !tbaa !56
  %15 = getelementptr inbounds nuw %"class.icu_77::ICUService", ptr %7, i32 0, i32 6
  store ptr null, ptr %15, align 8, !tbaa !57
  ret void

16:                                               ; preds = %2
  %17 = landingpad { ptr, i32 }
          cleanup
  %18 = extractvalue { ptr, i32 } %17, 0
  store ptr %18, ptr %5, align 8
  %19 = extractvalue { ptr, i32 } %17, 1
  store i32 %19, ptr %6, align 4
  call void @_ZN6icu_7711ICUNotifierD2Ev(ptr noundef nonnull align 8 dereferenceable(16) %7) #10
  br label %20

20:                                               ; preds = %16
  %21 = load ptr, ptr %5, align 8
  %22 = load i32, ptr %6, align 4
  %23 = insertvalue { ptr, i32 } poison, ptr %21, 0
  %24 = insertvalue { ptr, i32 } %23, i32 %22, 1
  resume { ptr, i32 } %24
}